target datalayout = "e-m:e-p270:32:32-p271:32:32-p272:64:64-i64:64-i128:128-f80:128-n8:16:32:64-S128"
target triple = "x86_64-pc-linux-gnu"

%struct.Vec_Int_t_ = type { i32, i32, ptr }

; Function Attrs: inlinehint nounwind uwtable
define internal i32 @Vec_IntEntry(ptr noundef %0, i32 noundef %1) #3 {
  %3 = alloca ptr, align 8
  %4 = alloca i32, align 4
  store ptr %0, ptr %3, align 8, !tbaa !8
  store i32 %1, ptr %4, align 4, !tbaa !24
  %5 = load ptr, ptr %3, align 8, !tbaa !8
  %6 = getelementptr inbounds nuw %struct.Vec_Int_t_, ptr %5, i32 0, i32 2
  %7 = load ptr, ptr %6, align 8, !tbaa !47
  %8 = load i32, ptr %4, align 4, !tbaa !24
  %9 = sext i32 %8 to i64
  %10 = getelementptr inbounds i32, ptr %7, i64 %9
  %11 = load i32, ptr %10, align 4, !tbaa !24
  ret i32 %11
}

; Function Attrs: inlinehint nounwind uwtable
define internal void @Vec_IntGrow(ptr noundef %0, i32 noundef %1) #3 {
  %3 = alloca ptr, align 8
  %4 = alloca i32, align 4
  store ptr %0, ptr %3, align 8, !tbaa !8
  store i32 %1, ptr %4, align 4, !tbaa !24
  %5 = load ptr, ptr %3, align 8, !tbaa !8
  %6 = getelementptr inbounds nuw %struct.Vec_Int_t_, ptr %5, i32 0, i32 0
  %7 = load i32, ptr %6, align 8, !tbaa !46
  %8 = load i32, ptr %4, align 4, !tbaa !24
  %9 = icmp sge i32 %7, %8
  br i1 %9, label %10, label %11

10:                                               ; preds = %2
  br label %36

11:                                               ; preds = %2
  %12 = load ptr, ptr %3, align 8, !tbaa !8
  %13 = getelementptr inbounds nuw %struct.Vec_Int_t_, ptr %12, i32 0, i32 2
  %14 = load ptr, ptr %13, align 8, !tbaa !47
  %15 = icmp ne ptr %14, null
  br i1 %15, label %16, label %24

16:                                               ; preds = %11
  %17 = load ptr, ptr %3, align 8, !tbaa !8
  %18 = getelementptr inbounds nuw %struct.Vec_Int_t_, ptr %17, i32 0, i32 2
  %19 = load ptr, ptr %18, align 8, !tbaa !47
  %20 = load i32, ptr %4, align 4, !tbaa !24
  %21 = sext i32 %20 to i64
  %22 = mul i64 4, %21
  %23 = call ptr @realloc(ptr noundef %19, i64 noundef %22) #16
  br label %29

24:                                               ; preds = %11
  %25 = load i32, ptr %4, align 4, !tbaa !24
  %26 = sext i32 %25 to i64
  %27 = mul i64 4, %26
  %28 = call noalias ptr @malloc(i64 noundef %27) #14
  br label %29

29:                                               ; preds = %24, %16
  %30 = phi ptr [ %23, %16 ], [ %28, %24 ]
  %31 = load ptr, ptr %3, align 8, !tbaa !8
  %32 = getelementptr inbounds nuw %struct.Vec_Int_t_, ptr %31, i32 0, i32 2
  store ptr %30, ptr %32, align 8, !tbaa !47
  %33 = load i32, ptr %4, align 4, !tbaa !24
  %34 = load ptr, ptr %3, align 8, !tbaa !8
  %35 = getelementptr inbounds nuw %struct.Vec_Int_t_, ptr %34, i32 0, i32 0
  store i32 %33, ptr %35, align 8, !tbaa !46
  br label %36

36:                                               ; preds = %29, %10
  ret void
}

; Function Attrs: inlinehint nounwind uwtable
define internal void @Vec_IntPushOrderCost(ptr noundef %0, i32 noundef %1, ptr noundef %2) #3 {
  %4 = alloca ptr, align 8
  %5 = alloca i32, align 4
  %6 = alloca ptr, align 8
  %7 = alloca i32, align 4
  store ptr %0, ptr %4, align 8, !tbaa !8
  store i32 %1, ptr %5, align 4, !tbaa !24
  store ptr %2, ptr %6, align 8, !tbaa !8
  call void @llvm.lifetime.start.p0(i64 4, ptr %7) #12
  %8 = load ptr, ptr %4, align 8, !tbaa !8
  %9 = getelementptr inbounds nuw %struct.Vec_Int_t_, ptr %8, i32 0, i32 1
  %10 = load i32, ptr %9, align 4, !tbaa !45
  %11 = load ptr, ptr %4, align 8, !tbaa !8
  %12 = getelementptr inbounds nuw %struct.Vec_Int_t_, ptr %11, i32 0, i32 0
  %13 = load i32, ptr %12, align 8, !tbaa !46
  %14 = icmp eq i32 %10, %13
  br i1 %14, label %15, label %29

15:                                               ; preds = %3
  %16 = load ptr, ptr %4, align 8, !tbaa !8
  %17 = getelementptr inbounds nuw %struct.Vec_Int_t_, ptr %16, i32 0, i32 0
  %18 = load i32, ptr %17, align 8, !tbaa !46
  %19 = icmp slt i32 %18, 16
  br i1 %19, label %20, label %22

20:                                               ; preds = %15
  %21 = load ptr, ptr %4, align 8, !tbaa !8
  call void @Vec_IntGrow(ptr noundef %21, i32 noundef 16)
  br label %28

22:                                               ; preds = %15
  %23 = load ptr, ptr %4, align 8, !tbaa !8
  %24 = load ptr, ptr %4, align 8, !tbaa !8
  %25 = getelementptr inbounds nuw %struct.Vec_Int_t_, ptr %24, i32 0, i32 0
  %26 = load i32, ptr %25, align 8, !tbaa !46
  %27 = mul nsw i32 2, %26
  call void @Vec_IntGrow(ptr noundef %23, i32 noundef %27)
  br label %28

28:                                               ; preds = %22, %20
  br label %29

29:                                               ; preds = %28, %3
  %30 = load ptr, ptr %4, align 8, !tbaa !8
  %31 = getelementptr inbounds nuw %struct.Vec_Int_t_, ptr %30, i32 0, i32 1
  %32 = load i32, ptr %31, align 4, !tbaa !45
  %33 = add nsw i32 %32, 1
  store i32 %33, ptr %31, align 4, !tbaa !45
  %34 = load ptr, ptr %4, align 8, !tbaa !8
  %35 = getelementptr inbounds nuw %struct.Vec_Int_t_, ptr %34, i32 0, i32 1
  %36 = load i32, ptr %35, align 4, !tbaa !45
  %37 = sub nsw i32 %36, 2
  store i32 %37, ptr %7, align 4, !tbaa !24
  br label %38

38:                                               ; preds = %72, %29
  %39 = load i32, ptr %7, align 4, !tbaa !24
  %40 = icmp sge i32 %39, 0
  br i1 %40, label %41, label %75

41:                                               ; preds = %38
  %42 = load ptr, ptr %6, align 8, !tbaa !8
  %43 = load ptr, ptr %4, align 8, !tbaa !8
  %44 = getelementptr inbounds nuw %struct.Vec_Int_t_, ptr %43, i32 0, i32 2
  %45 = load ptr, ptr %44, align 8, !tbaa !47
  %46 = load i32, ptr %7, align 4, !tbaa !24
  %47 = sext i32 %46 to i64
  %48 = getelementptr inbounds i32, ptr %45, i64 %47
  %49 = load i32, ptr %48, align 4, !tbaa !24
  %50 = call i32 @Vec_IntEntry(ptr noundef %42, i32 noundef %49)
  %51 = load ptr, ptr %6, align 8, !tbaa !8
  %52 = load i32, ptr %5, align 4, !tbaa !24
  %53 = call i32 @Vec_IntEntry(ptr noundef %51, i32 noundef %52)
  %54 = icmp sgt i32 %50, %53
  br i1 %54, label %55, label %70

55:                                               ; preds = %41
  %56 = load ptr, ptr %4, align 8, !tbaa !8
  %57 = getelementptr inbounds nuw %struct.Vec_Int_t_, ptr %56, i32 0, i32 2
  %58 = load ptr, ptr %57, align 8, !tbaa !47
  %59 = load i32, ptr %7, align 4, !tbaa !24
  %60 = sext i32 %59 to i64
  %61 = getelementptr inbounds i32, ptr %58, i64 %60
  %62 = load i32, ptr %61, align 4, !tbaa !24
  %63 = load ptr, ptr %4, align 8, !tbaa !8
  %64 = getelementptr inbounds nuw %struct.Vec_Int_t_, ptr %63, i32 0, i32 2
  %65 = load ptr, ptr %64, align 8, !tbaa !47
  %66 = load i32, ptr %7, align 4, !tbaa !24
  %67 = add nsw i32 %66, 1
  %68 = sext i32 %67 to i64
  %69 = getelementptr inbounds i32, ptr %65, i64 %68
  store i32 %62, ptr %69, align 4, !tbaa !24
  br label %71

70:                                               ; preds = %41
  br label %75

71:                                               ; preds = %55
  br label %72

72:                                               ; preds = %71
  %73 = load i32, ptr %7, align 4, !tbaa !24
  %74 = add nsw i32 %73, -1
  store i32 %74, ptr %7, align 4, !tbaa !24
  br label %38, !llvm.loop !108

75:                                               ; preds = %70, %38
  %76 = load i32, ptr %5, align 4, !tbaa !24
  %77 = load ptr, ptr %4, align 8, !tbaa !8
  %78 = getelementptr inbounds nuw %struct.Vec_Int_t_, ptr %77, i32 0, i32 2
  %79 = load ptr, ptr %78, align 8, !tbaa !47
  %80 = load i32, ptr %7, align 4, !tbaa !24
  %81 = add nsw i32 %80, 1
  %82 = sext i32 %81 to i64
  %83 = getelementptr inbounds i32, ptr %79, i64 %82
  store i32 %76, ptr %83, align 4, !tbaa !24
  call void @llvm.lifetime.end.p0(i64 4, ptr %7) #12
  ret void
}

; Function Attrs: inlinehint nounwind uwtable
define internal i32 @Vec_IntPushUniqueOrderCost(ptr noundef %0, i32 noundef %1, ptr noundef %2) #3 {
  %4 = alloca i32, align 4
  %5 = alloca ptr, align 8
  %6 = alloca i32, align 4
  %7 = alloca ptr, align 8
  %8 = alloca i32, align 4
  %9 = alloca i32, align 4
  store ptr %0, ptr %5, align 8, !tbaa !8
  store i32 %1, ptr %6, align 4, !tbaa !24
  store ptr %2, ptr %7, align 8, !tbaa !8
  call void @llvm.lifetime.start.p0(i64 4, ptr %8) #12
  store i32 0, ptr %8, align 4, !tbaa !24
  br label %10

10:                                               ; preds = %28, %3
  %11 = load i32, ptr %8, align 4, !tbaa !24
  %12 = load ptr, ptr %5, align 8, !tbaa !8
  %13 = getelementptr inbounds nuw %struct.Vec_Int_t_, ptr %12, i32 0, i32 1
  %14 = load i32, ptr %13, align 4, !tbaa !45
  %15 = icmp slt i32 %11, %14
  br i1 %15, label %16, label %31

16:                                               ; preds = %10
  %17 = load ptr, ptr %5, align 8, !tbaa !8
  %18 = getelementptr inbounds nuw %struct.Vec_Int_t_, ptr %17, i32 0, i32 2
  %19 = load ptr, ptr %18, align 8, !tbaa !47
  %20 = load i32, ptr %8, align 4, !tbaa !24
  %21 = sext i32 %20 to i64
  %22 = getelementptr inbounds i32, ptr %19, i64 %21
  %23 = load i32, ptr %22, align 4, !tbaa !24
  %24 = load i32, ptr %6, align 4, !tbaa !24
  %25 = icmp eq i32 %23, %24
  br i1 %25, label %26, label %27

26:                                               ; preds = %16
  store i32 1, ptr %4, align 4
  store i32 1, ptr %9, align 4
  br label %35

27:                                               ; preds = %16
  br label %28

28:                                               ; preds = %27
  %29 = load i32, ptr %8, align 4, !tbaa !24
  %30 = add nsw i32 %29, 1
  store i32 %30, ptr %8, align 4, !tbaa !24
  br label %10, !llvm.loop !93

31:                                               ; preds = %10
  %32 = load ptr, ptr %5, align 8, !tbaa !8
  %33 = load i32, ptr %6, align 4, !tbaa !24
  %34 = load ptr, ptr %7, align 8, !tbaa !8
  call void @Vec_IntPushOrderCost(ptr noundef %32, i32 noundef %33, ptr noundef %34)
  store i32 0, ptr %4, align 4
  store i32 1, ptr %9, align 4
  br label %35

35:                                               ; preds = %31, %26
  call void @llvm.lifetime.end.p0(i64 4, ptr %8) #12
  %36 = load i32, ptr %4, align 4
  ret i32 %36
}