; Function Attrs: inlinehint nounwind uwtable
define internal fastcc void @Vec_IntPushUniqueOrderCost(ptr noundef captures(none) %0, i32 noundef %1, ptr noundef readonly captures(none) %2) unnamed_addr #4 {
  %4 = getelementptr inbounds nuw i8, ptr %0, i64 4
  %5 = load i32, ptr %4, align 4, !tbaa !30
  %6 = icmp sgt i32 %5, 0
  br i1 %6, label %.lr.ph, label %._crit_edge

.lr.ph:                                           ; preds = %3
  %7 = getelementptr inbounds nuw i8, ptr %0, i64 8
  %8 = load ptr, ptr %7, align 8, !tbaa !33
  %wide.trip.count = zext nneg i32 %5 to i64
  br label %10

9:                                                ; preds = %10
  %indvars.iv.next = add nuw nsw i64 %indvars.iv, 1
  %exitcond.not = icmp eq i64 %indvars.iv.next, %wide.trip.count
  br i1 %exitcond.not, label %._crit_edge, label %10, !llvm.loop !85

10:                                               ; preds = %.lr.ph, %9
  %indvars.iv = phi i64 [ 0, %.lr.ph ], [ %indvars.iv.next, %9 ]
  %11 = getelementptr inbounds nuw i32, ptr %8, i64 %indvars.iv
  %12 = load i32, ptr %11, align 4, !tbaa !52
  %13 = icmp eq i32 %12, %1
  br i1 %13, label %.loopexit, label %9

._crit_edge:                                      ; preds = %9, %3
  %14 = load i32, ptr %0, align 8, !tbaa !32
  %15 = icmp eq i32 %5, %14
  br i1 %15, label %16, label %._crit_edge.Vec_IntGrow.exit25.i_crit_edge

._crit_edge.Vec_IntGrow.exit25.i_crit_edge:       ; preds = %._crit_edge
  %.phi.trans.insert = getelementptr inbounds nuw i8, ptr %0, i64 8
  %.pre = load ptr, ptr %.phi.trans.insert, align 8, !tbaa !33
  br label %Vec_IntGrow.exit25.i

16:                                               ; preds = %._crit_edge
  %17 = icmp slt i32 %5, 16
  br i1 %17, label %18, label %26

18:                                               ; preds = %16
  %19 = getelementptr inbounds nuw i8, ptr %0, i64 8
  %20 = load ptr, ptr %19, align 8, !tbaa !33
  %.not9.i.i = icmp eq ptr %20, null
  br i1 %.not9.i.i, label %23, label %21

21:                                               ; preds = %18
  %22 = tail call dereferenceable_or_null(64) ptr @realloc(ptr noundef nonnull %20, i64 noundef 64) #24
  br label %Vec_IntGrow.exit.i

23:                                               ; preds = %18
  %24 = tail call noalias dereferenceable_or_null(64) ptr @malloc(i64 noundef 64) #23
  br label %Vec_IntGrow.exit.i

Vec_IntGrow.exit.i:                               ; preds = %23, %21
  %25 = phi ptr [ %22, %21 ], [ %24, %23 ]
  store ptr %25, ptr %19, align 8, !tbaa !33
  br label %Vec_IntGrow.exit25thread-pre-split.i

26:                                               ; preds = %16
  %27 = shl nuw nsw i32 %5, 1
  %28 = getelementptr inbounds nuw i8, ptr %0, i64 8
  %29 = load ptr, ptr %28, align 8, !tbaa !33
  %.not9.i24.i = icmp eq ptr %29, null
  %30 = zext nneg i32 %27 to i64
  %31 = shl nuw nsw i64 %30, 2
  br i1 %.not9.i24.i, label %34, label %32

32:                                               ; preds = %26
  %33 = tail call ptr @realloc(ptr noundef nonnull %29, i64 noundef %31) #24
  br label %36

34:                                               ; preds = %26
  %35 = tail call noalias ptr @malloc(i64 noundef %31) #23
  br label %36

36:                                               ; preds = %34, %32
  %37 = phi ptr [ %33, %32 ], [ %35, %34 ]
  store ptr %37, ptr %28, align 8, !tbaa !33
  br label %Vec_IntGrow.exit25thread-pre-split.i

Vec_IntGrow.exit25thread-pre-split.i:             ; preds = %36, %Vec_IntGrow.exit.i
  %38 = phi ptr [ %25, %Vec_IntGrow.exit.i ], [ %37, %36 ]
  %.sink.i = phi i32 [ 16, %Vec_IntGrow.exit.i ], [ %27, %36 ]
  store i32 %.sink.i, ptr %0, align 8, !tbaa !32
  %.pr.i = load i32, ptr %4, align 4, !tbaa !30
  br label %Vec_IntGrow.exit25.i

Vec_IntGrow.exit25.i:                             ; preds = %._crit_edge.Vec_IntGrow.exit25.i_crit_edge, %Vec_IntGrow.exit25thread-pre-split.i
  %39 = phi ptr [ %38, %Vec_IntGrow.exit25thread-pre-split.i ], [ %.pre, %._crit_edge.Vec_IntGrow.exit25.i_crit_edge ]
  %40 = phi i32 [ %.pr.i, %Vec_IntGrow.exit25thread-pre-split.i ], [ %5, %._crit_edge.Vec_IntGrow.exit25.i_crit_edge ]
  %41 = add nsw i32 %40, 1
  store i32 %41, ptr %4, align 4, !tbaa !30
  %42 = icmp sgt i32 %40, 0
  br i1 %42, label %.lr.ph.i, label %Vec_IntPushOrderCost.exit

.lr.ph.i:                                         ; preds = %Vec_IntGrow.exit25.i
  %43 = getelementptr i8, ptr %2, i64 8
  %.val22.i = load ptr, ptr %43, align 8, !tbaa !33
  %44 = sext i32 %1 to i64
  %45 = getelementptr inbounds i32, ptr %.val22.i, i64 %44
  %46 = zext nneg i32 %40 to i64
  br label %47

47:                                               ; preds = %55, %.lr.ph.i
  %indvars.iv.i = phi i64 [ %46, %.lr.ph.i ], [ %indvars.iv.next.i, %55 ]
  %indvars.iv.next.i = add nsw i64 %indvars.iv.i, -1
  %48 = getelementptr inbounds nuw i32, ptr %39, i64 %indvars.iv.next.i
  %49 = load i32, ptr %48, align 4, !tbaa !52
  %50 = sext i32 %49 to i64
  %51 = getelementptr inbounds i32, ptr %.val22.i, i64 %50
  %52 = load i32, ptr %51, align 4, !tbaa !52
  %53 = load i32, ptr %45, align 4, !tbaa !52
  %54 = icmp sgt i32 %52, %53
  br i1 %54, label %55, label %._crit_edge.loopexit.split.loop.exit.i

55:                                               ; preds = %47
  %56 = getelementptr inbounds nuw i32, ptr %39, i64 %indvars.iv.i
  store i32 %49, ptr %56, align 4, !tbaa !52
  %57 = icmp samesign ugt i64 %indvars.iv.i, 1
  br i1 %57, label %47, label %Vec_IntPushOrderCost.exit, !llvm.loop !86

._crit_edge.loopexit.split.loop.exit.i:           ; preds = %47
  %58 = trunc nuw nsw i64 %indvars.iv.i to i32
  br label %Vec_IntPushOrderCost.exit

Vec_IntPushOrderCost.exit:                        ; preds = %55, %Vec_IntGrow.exit25.i, %._crit_edge.loopexit.split.loop.exit.i
  %.0.in.lcssa.i = phi i32 [ %40, %Vec_IntGrow.exit25.i ], [ %58, %._crit_edge.loopexit.split.loop.exit.i ], [ 0, %55 ]
  %59 = sext i32 %.0.in.lcssa.i to i64
  %60 = getelementptr inbounds i32, ptr %39, i64 %59
  store i32 %1, ptr %60, align 4, !tbaa !52
  br label %.loopexit

.loopexit:                                        ; preds = %10, %Vec_IntPushOrderCost.exit
  ret void
}